; Function Attrs: mustprogress nounwind uwtable
define hidden void @_ZN5zxing24GlobalHistogramBinarizerD2Ev(ptr noundef nonnull align 8 dereferenceable(121) initializes((0, 8), (72, 80), (96, 104)) %0) unnamed_addr #0 align 2 {
  store ptr getelementptr inbounds nuw inrange(-16, 48) (i8, ptr @_ZTVN5zxing24GlobalHistogramBinarizerE, i64 16), ptr %0, align 8, !tbaa !3
  %2 = getelementptr inbounds nuw i8, ptr %0, i64 96
  store ptr getelementptr inbounds nuw inrange(-16, 16) (i8, ptr @_ZTVN5zxing8ArrayRefIiEE, i64 16), ptr %2, align 8, !tbaa !3
  %3 = getelementptr inbounds nuw i8, ptr %0, i64 112
  %4 = load ptr, ptr %3, align 8, !tbaa !17
  %.not.i = icmp eq ptr %4, null
  br i1 %.not.i, label %_ZN5zxing8ArrayRefIiED2Ev.exit, label %5

5:                                                ; preds = %1
  %6 = getelementptr inbounds nuw i8, ptr %4, i64 8
  %7 = load i32, ptr %6, align 8, !tbaa !13
  %8 = add i32 %7, -1
  store i32 %8, ptr %6, align 8, !tbaa !13
  %9 = icmp eq i32 %8, 0
  br i1 %9, label %10, label %_ZN5zxing8ArrayRefIiED2Ev.exit

10:                                               ; preds = %5
  store i32 -559026175, ptr %6, align 8, !tbaa !13
  %11 = load ptr, ptr %4, align 8, !tbaa !3
  %12 = getelementptr inbounds nuw i8, ptr %11, i64 8
  %13 = load ptr, ptr %12, align 8
  tail call void %13(ptr noundef nonnull align 8 dereferenceable(12) %4) #15
  br label %_ZN5zxing8ArrayRefIiED2Ev.exit

_ZN5zxing8ArrayRefIiED2Ev.exit:                   ; preds = %1, %5, %10
  store ptr null, ptr %3, align 8, !tbaa !17
  %14 = getelementptr inbounds nuw i8, ptr %0, i64 72
  store ptr getelementptr inbounds nuw inrange(-16, 16) (i8, ptr @_ZTVN5zxing8ArrayRefIcEE, i64 16), ptr %14, align 8, !tbaa !3
  %15 = getelementptr inbounds nuw i8, ptr %0, i64 88
  %16 = load ptr, ptr %15, align 8, !tbaa !6
  %.not.i1 = icmp eq ptr %16, null
  br i1 %.not.i1, label %_ZN5zxing8ArrayRefIcED2Ev.exit, label %17

17:                                               ; preds = %_ZN5zxing8ArrayRefIiED2Ev.exit
  %18 = getelementptr inbounds nuw i8, ptr %16, i64 8
  %19 = load i32, ptr %18, align 8, !tbaa !13
  %20 = add i32 %19, -1
  store i32 %20, ptr %18, align 8, !tbaa !13
  %21 = icmp eq i32 %20, 0
  br i1 %21, label %22, label %_ZN5zxing8ArrayRefIcED2Ev.exit

22:                                               ; preds = %17
  store i32 -559026175, ptr %18, align 8, !tbaa !13
  %23 = load ptr, ptr %16, align 8, !tbaa !3
  %24 = getelementptr inbounds nuw i8, ptr %23, i64 8
  %25 = load ptr, ptr %24, align 8
  tail call void %25(ptr noundef nonnull align 8 dereferenceable(12) %16) #15
  br label %_ZN5zxing8ArrayRefIcED2Ev.exit

_ZN5zxing8ArrayRefIcED2Ev.exit:                   ; preds = %_ZN5zxing8ArrayRefIiED2Ev.exit, %17, %22
  store ptr null, ptr %15, align 8, !tbaa !6
  tail call void @_ZN5zxing9BinarizerD2Ev(ptr noundef nonnull align 8 dereferenceable(72) %0) #15
  ret void
}